target datalayout = "e-m:e-p270:32:32-p271:32:32-p272:64:64-i64:64-i128:128-f80:128-n8:16:32:64-S128"
target triple = "x86_64-pc-linux-gnu"

@lambda_tbl = hidden global [283 x double] zeroinitializer, align 16
@rgb_tbl = hidden global [3 x [283 x double]] zeroinitializer, align 16

; Function Attrs: mustprogress nounwind uwtable
define hidden noundef double @_Z7sigmoidd(double noundef %0) #0 {
  %2 = alloca double, align 8
  store double %0, ptr %2, align 8
  %3 = load double, ptr %2, align 8
  %4 = fmul contract double 5.000000e-01, %3
  %5 = load double, ptr %2, align 8
  %6 = load double, ptr %2, align 8
  %7 = fmul contract double %5, %6
  %8 = fadd contract double 1.000000e+00, %7
  %9 = call contract double @llvm.sqrt.f64(double %8)
  %10 = fdiv contract double %4, %9
  %11 = fadd contract double %10, 5.000000e-01
  ret double %11
}

; Function Attrs: mustprogress uwtable
define hidden void @_Z13eval_residualPKdS0_Pd(ptr noundef %0, ptr noundef %1, ptr noundef %2) #2 {
  %4 = alloca ptr, align 8
  %5 = alloca ptr, align 8
  %6 = alloca ptr, align 8
  %7 = alloca [3 x double], align 16
  %8 = alloca i32, align 4
  %9 = alloca double, align 8
  %10 = alloca double, align 8
  %11 = alloca i32, align 4
  %12 = alloca double, align 8
  %13 = alloca i32, align 4
  %14 = alloca i32, align 4
  store ptr %0, ptr %4, align 8
  store ptr %1, ptr %5, align 8
  store ptr %2, ptr %6, align 8
  call void @llvm.memset.p0.i64(ptr align 16 %7, i8 0, i64 24, i1 false)
  store i32 0, ptr %8, align 4
  br label %15

15:                                               ; preds = %66, %3
  %16 = load i32, ptr %8, align 4
  %17 = icmp slt i32 %16, 283
  br i1 %17, label %18, label %69

18:                                               ; preds = %15
  %19 = load i32, ptr %8, align 4
  %20 = sext i32 %19 to i64
  %21 = getelementptr inbounds [283 x double], ptr @lambda_tbl, i64 0, i64 %20
  %22 = load double, ptr %21, align 8
  %23 = fsub contract double %22, 3.600000e+02
  %24 = fdiv contract double %23, 4.700000e+02
  store double %24, ptr %9, align 8
  store double 0.000000e+00, ptr %10, align 8
  store i32 0, ptr %11, align 4
  br label %25

25:                                               ; preds = %38, %18
  %26 = load i32, ptr %11, align 4
  %27 = icmp slt i32 %26, 3
  br i1 %27, label %28, label %41

28:                                               ; preds = %25
  %29 = load double, ptr %10, align 8
  %30 = load double, ptr %9, align 8
  %31 = fmul contract double %29, %30
  %32 = load ptr, ptr %4, align 8
  %33 = load i32, ptr %11, align 4
  %34 = sext i32 %33 to i64
  %35 = getelementptr inbounds double, ptr %32, i64 %34
  %36 = load double, ptr %35, align 8
  %37 = fadd contract double %31, %36
  store double %37, ptr %10, align 8
  br label %38

38:                                               ; preds = %28
  %39 = load i32, ptr %11, align 4
  %40 = add nsw i32 %39, 1
  store i32 %40, ptr %11, align 4
  br label %25, !llvm.loop !21

41:                                               ; preds = %25
  %42 = load double, ptr %10, align 8
  %43 = call contract noundef double @_Z7sigmoidd(double noundef %42)
  store double %43, ptr %12, align 8
  store i32 0, ptr %13, align 4
  br label %44

44:                                               ; preds = %62, %41
  %45 = load i32, ptr %13, align 4
  %46 = icmp slt i32 %45, 3
  br i1 %46, label %47, label %65

47:                                               ; preds = %44
  %48 = load i32, ptr %13, align 4
  %49 = sext i32 %48 to i64
  %50 = getelementptr inbounds [3 x [283 x double]], ptr @rgb_tbl, i64 0, i64 %49
  %51 = load i32, ptr %8, align 4
  %52 = sext i32 %51 to i64
  %53 = getelementptr inbounds [283 x double], ptr %50, i64 0, i64 %52
  %54 = load double, ptr %53, align 8
  %55 = load double, ptr %12, align 8
  %56 = fmul contract double %54, %55
  %57 = load i32, ptr %13, align 4
  %58 = sext i32 %57 to i64
  %59 = getelementptr inbounds [3 x double], ptr %7, i64 0, i64 %58
  %60 = load double, ptr %59, align 8
  %61 = fadd contract double %60, %56
  store double %61, ptr %59, align 8
  br label %62

62:                                               ; preds = %47
  %63 = load i32, ptr %13, align 4
  %64 = add nsw i32 %63, 1
  store i32 %64, ptr %13, align 4
  br label %44, !llvm.loop !22

65:                                               ; preds = %44
  br label %66

66:                                               ; preds = %65
  %67 = load i32, ptr %8, align 4
  %68 = add nsw i32 %67, 1
  store i32 %68, ptr %8, align 4
  br label %15, !llvm.loop !23

69:                                               ; preds = %15
  %70 = getelementptr inbounds [3 x double], ptr %7, i64 0, i64 0
  call void @_Z7cie_labPd(ptr noundef %70)
  %71 = load ptr, ptr %6, align 8
  %72 = load ptr, ptr %5, align 8
  call void @llvm.memcpy.p0.p0.i64(ptr align 8 %71, ptr align 8 %72, i64 24, i1 false)
  %73 = load ptr, ptr %6, align 8
  call void @_Z7cie_labPd(ptr noundef %73)
  store i32 0, ptr %14, align 4
  br label %74

74:                                               ; preds = %88, %69
  %75 = load i32, ptr %14, align 4
  %76 = icmp slt i32 %75, 3
  br i1 %76, label %77, label %91

77:                                               ; preds = %74
  %78 = load i32, ptr %14, align 4
  %79 = sext i32 %78 to i64
  %80 = getelementptr inbounds [3 x double], ptr %7, i64 0, i64 %79
  %81 = load double, ptr %80, align 8
  %82 = load ptr, ptr %6, align 8
  %83 = load i32, ptr %14, align 4
  %84 = sext i32 %83 to i64
  %85 = getelementptr inbounds double, ptr %82, i64 %84
  %86 = load double, ptr %85, align 8
  %87 = fsub contract double %86, %81
  store double %87, ptr %85, align 8
  br label %88

88:                                               ; preds = %77
  %89 = load i32, ptr %14, align 4
  %90 = add nsw i32 %89, 1
  store i32 %90, ptr %14, align 4
  br label %74, !llvm.loop !24

91:                                               ; preds = %74
  ret void
}

; Function Attrs: mustprogress uwtable
define hidden void @_Z13eval_jacobianPKdS0_PPd(ptr noundef %0, ptr noundef %1, ptr noundef %2) #2 {
  %4 = alloca ptr, align 8
  %5 = alloca ptr, align 8
  %6 = alloca ptr, align 8
  %7 = alloca [3 x double], align 16
  %8 = alloca [3 x double], align 16
  %9 = alloca [3 x double], align 16
  %10 = alloca i32, align 4
  %11 = alloca i32, align 4
  store ptr %0, ptr %4, align 8
  store ptr %1, ptr %5, align 8
  store ptr %2, ptr %6, align 8
  store i32 0, ptr %10, align 4
  br label %12

12:                                               ; preds = %63, %3
  %13 = load i32, ptr %10, align 4
  %14 = icmp slt i32 %13, 3
  br i1 %14, label %15, label %66

15:                                               ; preds = %12
  %16 = getelementptr inbounds [3 x double], ptr %9, i64 0, i64 0
  %17 = load ptr, ptr %4, align 8
  call void @llvm.memcpy.p0.p0.i64(ptr align 16 %16, ptr align 8 %17, i64 24, i1 false)
  %18 = load i32, ptr %10, align 4
  %19 = sext i32 %18 to i64
  %20 = getelementptr inbounds [3 x double], ptr %9, i64 0, i64 %19
  %21 = load double, ptr %20, align 8
  %22 = fsub contract double %21, 1.000000e-04
  store double %22, ptr %20, align 8
  %23 = getelementptr inbounds [3 x double], ptr %9, i64 0, i64 0
  %24 = load ptr, ptr %5, align 8
  %25 = getelementptr inbounds [3 x double], ptr %7, i64 0, i64 0
  call void @_Z13eval_residualPKdS0_Pd(ptr noundef %23, ptr noundef %24, ptr noundef %25)
  %26 = getelementptr inbounds [3 x double], ptr %9, i64 0, i64 0
  %27 = load ptr, ptr %4, align 8
  call void @llvm.memcpy.p0.p0.i64(ptr align 16 %26, ptr align 8 %27, i64 24, i1 false)
  %28 = load i32, ptr %10, align 4
  %29 = sext i32 %28 to i64
  %30 = getelementptr inbounds [3 x double], ptr %9, i64 0, i64 %29
  %31 = load double, ptr %30, align 8
  %32 = fadd contract double %31, 1.000000e-04
  store double %32, ptr %30, align 8
  %33 = getelementptr inbounds [3 x double], ptr %9, i64 0, i64 0
  %34 = load ptr, ptr %5, align 8
  %35 = getelementptr inbounds [3 x double], ptr %8, i64 0, i64 0
  call void @_Z13eval_residualPKdS0_Pd(ptr noundef %33, ptr noundef %34, ptr noundef %35)
  store i32 0, ptr %11, align 4
  br label %36

36:                                               ; preds = %59, %15
  %37 = load i32, ptr %11, align 4
  %38 = icmp slt i32 %37, 3
  br i1 %38, label %39, label %62

39:                                               ; preds = %36
  %40 = load i32, ptr %11, align 4
  %41 = sext i32 %40 to i64
  %42 = getelementptr inbounds [3 x double], ptr %8, i64 0, i64 %41
  %43 = load double, ptr %42, align 8
  %44 = load i32, ptr %11, align 4
  %45 = sext i32 %44 to i64
  %46 = getelementptr inbounds [3 x double], ptr %7, i64 0, i64 %45
  %47 = load double, ptr %46, align 8
  %48 = fsub contract double %43, %47
  %49 = fmul contract double %48, 1.000000e+00
  %50 = fdiv contract double %49, 2.000000e-04
  %51 = load ptr, ptr %6, align 8
  %52 = load i32, ptr %11, align 4
  %53 = sext i32 %52 to i64
  %54 = getelementptr inbounds ptr, ptr %51, i64 %53
  %55 = load ptr, ptr %54, align 8
  %56 = load i32, ptr %10, align 4
  %57 = sext i32 %56 to i64
  %58 = getelementptr inbounds double, ptr %55, i64 %57
  store double %50, ptr %58, align 8
  br label %59

59:                                               ; preds = %39
  %60 = load i32, ptr %11, align 4
  %61 = add nsw i32 %60, 1
  store i32 %61, ptr %11, align 4
  br label %36, !llvm.loop !25

62:                                               ; preds = %36
  br label %63

63:                                               ; preds = %62
  %64 = load i32, ptr %10, align 4
  %65 = add nsw i32 %64, 1
  store i32 %65, ptr %10, align 4
  br label %12, !llvm.loop !26

66:                                               ; preds = %12
  ret void
}