; Function Attrs: mustprogress nofree nosync nounwind memory(readwrite, inaccessiblemem: none) uwtable
define hidden void @_Z13eval_jacobianPKdS0_PPd(ptr nocapture noundef readonly %0, ptr nocapture noundef readonly %1, ptr nocapture noundef readonly %2) local_unnamed_addr #12 {
  %4 = alloca [3 x double], align 16
  %5 = alloca [3 x double], align 16
  %6 = alloca [3 x double], align 16
  %7 = alloca [3 x double], align 16
  %8 = alloca [3 x double], align 16
  br label %9

9:                                                ; preds = %3, %89
  %indvars.iv34 = phi i64 [ 0, %3 ], [ %indvars.iv.next35, %89 ]
  call void @llvm.memcpy.p0.p0.i64(ptr noundef nonnull align 16 dereferenceable(24) %8, ptr noundef nonnull align 8 dereferenceable(24) %0, i64 24, i1 false)
  %10 = getelementptr inbounds [3 x double], ptr %8, i64 0, i64 %indvars.iv34
  %11 = load double, ptr %10, align 8
  %12 = fadd contract double %11, -1.000000e-04
  store double %12, ptr %10, align 8
  call void @llvm.lifetime.start.p0(i64 24, ptr nonnull %5)
  call void @llvm.memset.p0.i64(ptr noundef nonnull align 16 dereferenceable(24) %5, i8 0, i64 24, i1 false)
  br label %13

13:                                               ; preds = %37, %9
  %indvars.iv37.i = phi i64 [ 0, %9 ], [ %indvars.iv.next38.i, %37 ]
  %14 = getelementptr inbounds [283 x double], ptr @lambda_tbl, i64 0, i64 %indvars.iv37.i
  %15 = load double, ptr %14, align 8
  %16 = fadd contract double %15, -3.600000e+02
  %17 = fdiv contract double %16, 4.700000e+02
  br label %18

18:                                               ; preds = %18, %13
  %indvars.iv.i = phi i64 [ 0, %13 ], [ %indvars.iv.next.i, %18 ]
  %.02627.i = phi double [ 0.000000e+00, %13 ], [ %22, %18 ]
  %19 = fmul contract double %17, %.02627.i
  %20 = getelementptr inbounds double, ptr %8, i64 %indvars.iv.i
  %21 = load double, ptr %20, align 8
  %22 = fadd contract double %19, %21
  %indvars.iv.next.i = add nuw nsw i64 %indvars.iv.i, 1
  %exitcond.not.i = icmp eq i64 %indvars.iv.next.i, 3
  br i1 %exitcond.not.i, label %23, label %18, !llvm.loop !21

23:                                               ; preds = %18
  %24 = fmul contract double %22, 5.000000e-01
  %25 = fmul contract double %22, %22
  %26 = fadd contract double %25, 1.000000e+00
  %27 = tail call contract double @llvm.sqrt.f64(double %26)
  %28 = fdiv contract double %24, %27
  %29 = fadd contract double %28, 5.000000e-01
  br label %30

30:                                               ; preds = %30, %23
  %indvars.iv33.i = phi i64 [ 0, %23 ], [ %indvars.iv.next34.i, %30 ]
  %31 = getelementptr inbounds [3 x [283 x double]], ptr @rgb_tbl, i64 0, i64 %indvars.iv33.i, i64 %indvars.iv37.i
  %32 = load double, ptr %31, align 8
  %33 = fmul contract double %29, %32
  %34 = getelementptr inbounds [3 x double], ptr %5, i64 0, i64 %indvars.iv33.i
  %35 = load double, ptr %34, align 8
  %36 = fadd contract double %35, %33
  store double %36, ptr %34, align 8
  %indvars.iv.next34.i = add nuw nsw i64 %indvars.iv33.i, 1
  %exitcond36.not.i = icmp eq i64 %indvars.iv.next34.i, 3
  br i1 %exitcond36.not.i, label %37, label %30, !llvm.loop !22

37:                                               ; preds = %30
  %indvars.iv.next38.i = add nuw nsw i64 %indvars.iv37.i, 1
  %exitcond40.not.i = icmp eq i64 %indvars.iv.next38.i, 283
  br i1 %exitcond40.not.i, label %38, label %13, !llvm.loop !23

38:                                               ; preds = %37
  call void @_Z7cie_labPd(ptr noundef nonnull %5)
  call void @llvm.memcpy.p0.p0.i64(ptr noundef nonnull align 16 dereferenceable(24) %6, ptr noundef nonnull align 8 dereferenceable(24) %1, i64 24, i1 false)
  call void @_Z7cie_labPd(ptr noundef nonnull %6)
  br label %39

39:                                               ; preds = %39, %38
  %indvars.iv41.i = phi i64 [ 0, %38 ], [ %indvars.iv.next42.i, %39 ]
  %40 = getelementptr inbounds [3 x double], ptr %5, i64 0, i64 %indvars.iv41.i
  %41 = load double, ptr %40, align 8
  %42 = getelementptr inbounds double, ptr %6, i64 %indvars.iv41.i
  %43 = load double, ptr %42, align 8
  %44 = fsub contract double %43, %41
  store double %44, ptr %42, align 8
  %indvars.iv.next42.i = add nuw nsw i64 %indvars.iv41.i, 1
  %exitcond44.not.i = icmp eq i64 %indvars.iv.next42.i, 3
  br i1 %exitcond44.not.i, label %_Z13eval_residualPKdS0_Pd.exit, label %39, !llvm.loop !24

_Z13eval_residualPKdS0_Pd.exit:                   ; preds = %39
  call void @llvm.lifetime.end.p0(i64 24, ptr nonnull %5)
  call void @llvm.memcpy.p0.p0.i64(ptr noundef nonnull align 16 dereferenceable(24) %8, ptr noundef nonnull align 8 dereferenceable(24) %0, i64 24, i1 false)
  %45 = load double, ptr %10, align 8
  %46 = fadd contract double %45, 1.000000e-04
  store double %46, ptr %10, align 8
  call void @llvm.lifetime.start.p0(i64 24, ptr nonnull %4)
  call void @llvm.memset.p0.i64(ptr noundef nonnull align 16 dereferenceable(24) %4, i8 0, i64 24, i1 false)
  br label %47

47:                                               ; preds = %71, %_Z13eval_residualPKdS0_Pd.exit
  %indvars.iv37.i15 = phi i64 [ 0, %_Z13eval_residualPKdS0_Pd.exit ], [ %indvars.iv.next38.i23, %71 ]
  %48 = getelementptr inbounds [283 x double], ptr @lambda_tbl, i64 0, i64 %indvars.iv37.i15
  %49 = load double, ptr %48, align 8
  %50 = fadd contract double %49, -3.600000e+02
  %51 = fdiv contract double %50, 4.700000e+02
  br label %52

52:                                               ; preds = %52, %47
  %indvars.iv.i16 = phi i64 [ 0, %47 ], [ %indvars.iv.next.i18, %52 ]
  %.02627.i17 = phi double [ 0.000000e+00, %47 ], [ %56, %52 ]
  %53 = fmul contract double %51, %.02627.i17
  %54 = getelementptr inbounds double, ptr %8, i64 %indvars.iv.i16
  %55 = load double, ptr %54, align 8
  %56 = fadd contract double %53, %55
  %indvars.iv.next.i18 = add nuw nsw i64 %indvars.iv.i16, 1
  %exitcond.not.i19 = icmp eq i64 %indvars.iv.next.i18, 3
  br i1 %exitcond.not.i19, label %57, label %52, !llvm.loop !21

57:                                               ; preds = %52
  %58 = fmul contract double %56, 5.000000e-01
  %59 = fmul contract double %56, %56
  %60 = fadd contract double %59, 1.000000e+00
  %61 = tail call contract double @llvm.sqrt.f64(double %60)
  %62 = fdiv contract double %58, %61
  %63 = fadd contract double %62, 5.000000e-01
  br label %64

64:                                               ; preds = %64, %57
  %indvars.iv33.i20 = phi i64 [ 0, %57 ], [ %indvars.iv.next34.i21, %64 ]
  %65 = getelementptr inbounds [3 x [283 x double]], ptr @rgb_tbl, i64 0, i64 %indvars.iv33.i20, i64 %indvars.iv37.i15
  %66 = load double, ptr %65, align 8
  %67 = fmul contract double %63, %66
  %68 = getelementptr inbounds [3 x double], ptr %4, i64 0, i64 %indvars.iv33.i20
  %69 = load double, ptr %68, align 8
  %70 = fadd contract double %69, %67
  store double %70, ptr %68, align 8
  %indvars.iv.next34.i21 = add nuw nsw i64 %indvars.iv33.i20, 1
  %exitcond36.not.i22 = icmp eq i64 %indvars.iv.next34.i21, 3
  br i1 %exitcond36.not.i22, label %71, label %64, !llvm.loop !22

71:                                               ; preds = %64
  %indvars.iv.next38.i23 = add nuw nsw i64 %indvars.iv37.i15, 1
  %exitcond40.not.i24 = icmp eq i64 %indvars.iv.next38.i23, 283
  br i1 %exitcond40.not.i24, label %72, label %47, !llvm.loop !23

72:                                               ; preds = %71
  call void @_Z7cie_labPd(ptr noundef nonnull %4)
  call void @llvm.memcpy.p0.p0.i64(ptr noundef nonnull align 16 dereferenceable(24) %7, ptr noundef nonnull align 8 dereferenceable(24) %1, i64 24, i1 false)
  call void @_Z7cie_labPd(ptr noundef nonnull %7)
  br label %73

73:                                               ; preds = %73, %72
  %indvars.iv41.i25 = phi i64 [ 0, %72 ], [ %indvars.iv.next42.i26, %73 ]
  %74 = getelementptr inbounds [3 x double], ptr %4, i64 0, i64 %indvars.iv41.i25
  %75 = load double, ptr %74, align 8
  %76 = getelementptr inbounds double, ptr %7, i64 %indvars.iv41.i25
  %77 = load double, ptr %76, align 8
  %78 = fsub contract double %77, %75
  store double %78, ptr %76, align 8
  %indvars.iv.next42.i26 = add nuw nsw i64 %indvars.iv41.i25, 1
  %exitcond44.not.i27 = icmp eq i64 %indvars.iv.next42.i26, 3
  br i1 %exitcond44.not.i27, label %_Z13eval_residualPKdS0_Pd.exit28, label %73, !llvm.loop !24

_Z13eval_residualPKdS0_Pd.exit28:                 ; preds = %73
  call void @llvm.lifetime.end.p0(i64 24, ptr nonnull %4)
  br label %79

79:                                               ; preds = %_Z13eval_residualPKdS0_Pd.exit28, %79
  %indvars.iv = phi i64 [ 0, %_Z13eval_residualPKdS0_Pd.exit28 ], [ %indvars.iv.next, %79 ]
  %80 = getelementptr inbounds [3 x double], ptr %7, i64 0, i64 %indvars.iv
  %81 = load double, ptr %80, align 8
  %82 = getelementptr inbounds [3 x double], ptr %6, i64 0, i64 %indvars.iv
  %83 = load double, ptr %82, align 8
  %84 = fsub contract double %81, %83
  %85 = fdiv contract double %84, 2.000000e-04
  %86 = getelementptr inbounds ptr, ptr %2, i64 %indvars.iv
  %87 = load ptr, ptr %86, align 8
  %88 = getelementptr inbounds double, ptr %87, i64 %indvars.iv34
  store double %85, ptr %88, align 8
  %indvars.iv.next = add nuw nsw i64 %indvars.iv, 1
  %exitcond.not = icmp eq i64 %indvars.iv.next, 3
  br i1 %exitcond.not, label %89, label %79, !llvm.loop !25

89:                                               ; preds = %79
  %indvars.iv.next35 = add nuw nsw i64 %indvars.iv34, 1
  %exitcond37.not = icmp eq i64 %indvars.iv.next35, 3
  br i1 %exitcond37.not, label %90, label %9, !llvm.loop !26

90:                                               ; preds = %89
  ret void
}